(lp1
cnumpy.core.multiarray
_reconstruct
p2
(cnumpy
ndarray
p3
(I0
tS'b'
tRp4
(I1
(I2
tcnumpy
dtype
p5
(S'O8'
I0
I1
tRp6
(I3
S'|'
NNNI-1
I-1
I63
tbI00
(lp7
(lp8
(lp9
F1.2654699762772881
aF-1.5637760618194132
aF-0.13721663456728611
aF-2.0913219738339563
aF6.367831045057831
aF1.9825606102778628
aF4.0813435743742215
aF0.52235871526352362
aF3.7216028114001714
aF-2.3695022154082745
aF-2.0165286138164413
aF-3.5556885924942465
aF0.76766841778216988
aF4.1371646662549377
aF0.49055802262673887
aF3.6235509758335716
aF-5.3296236841015672
aF2.8450995597419202
aF-8.1895853012046711
aa(lp10
F0.8868352889254042
aF4.7565956399711995
aF-0.75254530841080791
aF1.4373776113939398
aF-6.7328215173639716
aF5.9463797604465016
aF-7.4005783232223479
aF-0.96860045343141765
aF-0.82348673607828671
aF1.013750496658661
aF-2.3785242574414913
aF4.4104275268921462
aF-1.9316248735617338
aF1.7675363803660682
aF5.0408439999015417
aF5.6203288094311494
aF-2.8399454392012844
aF-0.85714758139045188
aF6.9300170605008331
aa(lp11
F-0.39097665353778116
aF-0.97023666448735046
aF2.6871372760511432
aF-3.636485219694384
aF3.9450408682044693
aF-3.6540645395456237
aF0.35302769279684698
aF2.1907425442652029
aF-2.2863434300599721
aF2.6726229017991843
aF1.5041085406306576
aF-3.7469147790662398
aF-5.9834304036560395
aF-2.9569324685179526
aF-2.3650213792636996
aF4.4595963716043823
aF-1.0469569575490865
aF2.2926529842674026
aF2.0702515970521755
aa(lp12
F-4.3077835589975626
aF-2.3747817506883853
aF-3.2252161334399565
aF2.1579588815759592
aF-4.253249651373638
aF0.22141378092038191
aF-4.144845318056519
aF-2.1785818242542416
aF-5.0669095854182773
aF4.5481284394721282
aF-2.693763585617444
aF-4.3450072719373933
aF2.9040976160868976
aF1.9086642205691173
aF1.1504692687077145
aF-9.2888833633456187
aF-2.4114583040658486
aF-3.9020709495786225
aF-2.6741589291112113
aa(lp13
F4.4653545406839763
aF-1.490238133542878
aF-2.9670470467397849
aF0.10746879332058253
aF-3.0743686316344987
aF-2.3109332233296893
aF0.60199903129003118
aF-5.7294245259701642
aF-1.1803753752173451
aF2.4760651642856706
aF-6.3136054764465337
aF-4.5569236895905334
aF-1.0740762969857924
aF-2.9422095115339824
aF-0.37418852002209402
aF1.8979815179381143
aF-5.8330791510640507
aF0.33373960202412917
aF-4.5885077567804986
aa(lp14
F-0.31840044205513446
aF-0.51152551929080325
aF0.10731392987026475
aF2.1990706133863185
aF-0.89001777088175893
aF-0.14140827836919856
aF3.9879010134408728
aF-2.439048599381787
aF-2.375044691897553
aF0.50021642966893853
aF2.8690011494030219
aF-3.5775775743249412
aF2.7943592680298242
aF-0.071779749209318719
aF1.504921432964748
aF1.4382759917333539
aF2.5068291750327925
aF-2.7747416947650367
aF-3.4589909519597675
aa(lp15
F1.995606056903156
aF7.6995238360713607
aF6.3173146057839826
aF-1.1576095203371553
aF-0.052894801794912294
aF-0.32955580173416249
aF2.6062757769455289
aF-0.8700576007437445
aF0.72660277921044925
aF4.8900467049871228
aF-3.0246034477695862
aF-7.7205089107506382
aF3.9394067592769311
aF-4.8639238583383619
aF-4.4938797990276873
aF-6.4293883429848622
aF4.1263120584558299
aF2.8026826700185876
aF1.6703390119748518
aa(lp16
F-2.4975944075479095
aF1.9559805885418338
aF-3.5676645767388226
aF3.1661439361797359
aF3.2880330156794715
aF1.35421115374521
aF1.8877575833380913
aF-0.67968484284539188
aF-0.72528317202715997
aF4.03350257862897
aF-1.1707398967336446
aF-3.0704700705001704
aF0.24612364749888965
aF-0.090678466424809034
aF-4.3346422847884529
aF0.089904761620853674
aF0.32089013441137798
aF-4.2052884945312572
aF8.440203710214405
aa(lp17
F0.76011416431065493
aF1.2549738104923147
aF1.4677237998942276
aF-3.1705342081467363
aF-0.19193428909199003
aF1.1369173479375474
aF-4.0150102335264002
aF-0.80335170243909471
aF-10.581176443570985
aF-2.3118443876422083
aF5.2334112273528115
aF-0.32203142684182062
aF-4.0663701064670139
aF-4.8865014205564998
aF2.8468535569201956
aF-0.52806097007628983
aF1.9285666422751295
aF1.4623032211031362
aF-0.57775033940907328
aa(lp18
F-1.9819395356752831
aF-0.75459235170186756
aF5.1058758297418096
aF-0.092936810792287106
aF-2.4009699764095513
aF1.3238460267180436
aF-1.0854139261902864
aF-1.4904426511398006
aF0.97307510782929751
aF-2.6576808818049322
aF2.054499901697326
aF3.3332341335327014
aF2.9141806197521327
aF-3.8806822359008959
aF-0.24579125214958319
aF-0.36059129699985559
aF1.474939109301554
aF-0.52103976772269911
aF-4.6602744467201687
aa(lp19
F0.72259456484237905
aF0.79931040754757554
aF1.5662346595995527
aF0.38720176807383722
aF2.6284266295576022
aF0.58894939921158662
aF4.1936784285664377
aF0.75685212996964701
aF-1.6834925300185726
aF3.0703948079670935
aF4.4511715939664667
aF5.1442928341783425
aF-0.5459585785755412
aF1.4423622373434821
aF-2.3704918939845392
aF3.3085027356201526
aF1.3264463417030621
aF-2.7775219487415979
aF-0.99617967544906216
aa(lp20
F-3.0512295969757792
aF-0.93873269111133117
aF3.3919831059187944
aF3.909979939781588
aF-2.0334891511767355
aF0.69262305548804304
aF-2.7652073268429587
aF2.0321387811429119
aF-3.9601505761519671
aF-4.8757811479660083
aF0.032529248388210252
aF-3.5277721231583614
aF0.63286632376117402
aF-2.8443923062599499
aF-0.31279547302866262
aF-5.5193656267352944
aF-2.5227884697769754
aF-3.3883211571765086
aF-0.84700245876785962
aa(lp21
F5.1674096605335942
aF-4.6300009878227097
aF3.1504093250634773
aF-3.3418842399787505
aF-1.2575278956061553
aF2.6467947396863538
aF5.0430598497148615
aF1.5313569445882322
aF-3.2832977853664338
aF-0.0011941933706598809
aF-0.40936308549474548
aF-3.9033845301361034
aF5.3408609579670348
aF-0.57061451761904136
aF-7.6156211981015929
aF4.0320581526197721
aF-1.8411979571808321
aF6.5084947982014976
aF-1.4770074379118401
aa(lp22
F-5.826012763010584
aF0.40388589022722604
aF2.840324960188263
aF2.4898243879773458
aF-1.8133236010316722
aF6.765673921522847
aF4.1343185052188067
aF-3.9623986719947886
aF-1.679975833482551
aF-2.7599340381745496
aF0.60360171556787856
aF-5.0004266241390978
aF-0.90266153664806603
aF2.3007785800342928
aF1.693353961161836
aF-2.274741569007285
aF-5.5795199765332164
aF-2.4043073671926685
aF-2.5451722732651385
aa(lp23
F1.2146273062600321
aF1.6853049912094269
aF-1.7302233727112712
aF0.47483069859629945
aF3.3743253217665647
aF-1.7394116880700625
aF4.0964579272982427
aF1.0317511718836807
aF-2.3091887845610479
aF6.3147081758443244
aF-1.4330691583115307
aF1.2293904885894342
aF1.9354446093005842
aF2.7537904161011255
aF0.11307341192969483
aF2.967889006664703
aF8.2361096187426135
aF1.4884428367140579
aF3.51918657433079
aa(lp24
F-3.6502242566373622
aF-4.4253494525795611
aF-3.718346355875247
aF-1.9754626664889903
aF4.1331852222194509
aF1.2790448910688779
aF1.2402771217775495
aF3.8511037668695933
aF3.8401553589469746
aF-7.3829058970791639
aF1.8424231778283124
aF0.067367284822641288
aF0.51078264866296319
aF-1.8083064370349551
aF-3.2709944338776218
aF0.97772040949613692
aF3.1147942644983324
aF-3.6820173932494531
aF-1.9353199567482335
aa(lp25
F-5.2046637660513762
aF-0.87486300254287697
aF-3.5649502152486581
aF2.5648095131417428
aF8.1767196102071384
aF4.1996503131077212
aF4.4047271785885105
aF-6.334154359503871
aF0.33039795228043839
aF0.53627021236683903
aF-2.4764602941384317
aF1.9575228487488465
aF1.2468172568592624
aF0.58392070634530302
aF-2.8324802121100658
aF-2.6422342626730977
aF6.5186844561935873
aF-0.054064893306400783
aF-2.337198487702131
aa(lp26
F-0.087102514844017556
aF4.8136203138965223
aF-2.2219361012225067
aF-2.0497658533116114
aF-1.4999103331818944
aF2.5053011429597256
aF-2.4813085593849733
aF0.32839023907105303
aF-1.1929272839093079
aF-1.8554371391303299
aF-7.3091088177460577
aF1.3343135341409325
aF-1.4682333991164769
aF-4.1701251200262677
aF-0.69021987351395742
aF2.3737949578794351
aF-2.0622166841350156
aF-0.60984680625140797
aF-1.6431641407490145
aaa(lp27
(lp28
F0.38088268091486649
aF-4.3455104713626787
aF3.19612328804438
aF1.2164208926141058
aF0.52215749553933721
aF7.218208437362013
aF1.5002213955820904
aF-6.5147130859378999
aF-0.86269053817686081
aF-2.0731236295385163
aF-2.8825711584376976
aF-0.36595786340202785
aF2.1598720171522521
aF10.628560421436557
aF-0.099806242296361439
aF-0.90724054357442374
aF3.3990231593056528
aF-0.16786265963125604
aF-1.8828291297080084
aaatbag2
(g3
(I0
tS'b'
tRp29
(I1
(I2
tg6
I00
(lp30
(lp31
(lp32
F2.9701615145612443
aF-7.5071766374688771
aF-1.9698418922376775
aF-0.81809839032936038
aF3.8896648786660695
aF-1.2373807185426267
aF-4.6440440064471336
aF1.7726433156385921
aF-3.1059912644441035
aF1.8554016716911987
aF0.6322425148543519
aF-7.8509747960041443
aF1.151815149336763
aF1.2603178644153297
aF4.4890943259741318
aF2.5458482330770571
aF4.3461632362014733
aF1.0356071396536348
aF3.6630520989139441
aa(lp33
F-5.4706414414642239
aF-0.50878813200423256
aF-2.8259446514048467
aF-6.6794884073568506
aF1.576952964492168
aF3.1426700563292771
aF1.2937196327165101
aF0.78631283736014157
aF-2.4128413667423874
aF3.4185805160411835
aF7.0974847219136823
aF-1.1991730408857353
aF-0.095871322021479799
aF-0.81534130165491292
aF-1.1799547704903579
aF-1.0000313098922113
aF1.080078006613193
aF0.36595619725008022
aF5.2485576084496488
aa(lp34
F-1.6458526963255722
aF-2.0549794655580667
aF-4.285148224154435
aF-3.8185616844513253
aF8.8373507511242533
aF3.8425279552760436
aF1.5105943516128804
aF2.5447334296113966
aF0.24198710915714663
aF-2.1404770904009971
aF5.7785870012044924
aF-2.7192795779833583
aF2.501076008547241
aF-5.8040933629778877
aF-0.030641397629959821
aF2.5409969056751356
aF-6.3836578581530183
aF0.41857713580837147
aF1.5681586470530309
aa(lp35
F-1.3611912937798341
aF-4.1033610255376152
aF-1.8681387544646051
aF-0.91535158398752747
aF-2.6350549276532487
aF-3.427646664208496
aF0.26123579088927723
aF2.0470259613007507
aF-3.3285086522887206
aF0.75393202397202985
aF3.2568364192163313
aF1.1296702246333679
aF2.1428646812825094
aF-1.6027461518570587
aF6.7334776158795355
aF-6.9700766873515381
aF-3.8762028642400548
aF-3.269420332351137
aF2.701777836268378
aa(lp36
F-4.0991118808191942
aF-3.729144124615269
aF0.53786900364297008
aF-0.022382732262036908
aF-3.7925823769470148
aF2.9428624979696481
aF-0.94528547126231655
aF5.288947165743255
aF4.8140791408673396
aF0.48630151059847371
aF-2.325393433173685
aF-1.6664788840377389
aF-0.36091374910553009
aF0.66546482287930009
aF-3.1993966378163736
aF4.8227047426739205
aF0.2364433661713797
aF1.2549193097985958
aF-5.1383748377066532
aa(lp37
F-8.2723917530248645
aF-7.9726484127040793
aF-4.5445712055604535
aF-1.2340100768763811
aF0.79792527791454071
aF1.4975456304194532
aF-1.4003060932733116
aF-1.010751240002528
aF-1.2420134270785488
aF5.4500395012155431
aF-5.3194610825777149
aF-1.0163831916655577
aF-0.48129121590450819
aF-1.6734016968177021
aF-3.8104292152410908
aF-2.577004691511235
aF2.3668419914031364
aF0.81254241262008287
aF-1.0819933328132414
aa(lp38
F-2.0883018898327266
aF-1.828476291017548
aF4.4186635328630048
aF-0.5797811570913205
aF-1.8611030589344444
aF1.0673095850834409
aF-2.1388501132407538
aF-1.0037815712679536
aF2.36590575089348
aF1.8834739130873053
aF1.1503504549988457
aF-3.6715192695607852
aF-1.3139361197215234
aF-2.924516541796331
aF0.0088075785283925762
aF2.8407916177038812
aF0.2838949840977521
aF-4.5549463002706583
aF3.7331693383707658
aa(lp39
F-2.4530873016574768
aF-0.31525468131869311
aF-2.0111854642451545
aF2.4792610065091094
aF1.8262414419018442
aF0.51819439665047751
aF3.1012460522137268
aF0.4548426778631075
aF1.1315748225785494
aF0.65894613289483095
aF4.1627235502535589
aF-1.3378022158058689
aF1.5759299625321455
aF-1.7604539513065383
aF2.4023222302549225
aF6.6492329000453845
aF5.3371060568006685
aF-5.8360414098629008
aF-1.9751489444151837
aa(lp40
F-1.0110492799395667
aF-2.3392866089260282
aF-5.5088882871864229
aF0.25292006640686082
aF-8.3411168487164602
aF-6.1806860000819412
aF1.6353474450047523
aF-3.0158451818610463
aF2.7451176987630781
aF1.0237562543611334
aF-4.0801336168919926
aF1.8510972962676431
aF-2.7026040738504733
aF-3.6146917904888642
aF0.84713242089104512
aF2.2332508263179145
aF-1.9901729621480826
aF-6.2773887632737644
aF-0.4878881332213339
aa(lp41
F-0.26323841169300466
aF1.8588002908875854
aF-4.1235479430870265
aF-4.101683772100392
aF-4.6836123015694211
aF-0.59742825609472638
aF4.2833464074986374
aF2.343721886174956
aF-6.9391339448695586
aF0.12318201595575631
aF-0.15753035425142672
aF6.1559829688380239
aF-3.2623250792094725
aF1.1445205949773316
aF-5.2724308358204874
aF-1.9832358792792333
aF7.4534433000610312
aF-1.0380207123839207
aF0.83265116951684437
aa(lp42
F-3.2834732414384487
aF-1.5254943094184417
aF-0.52260394399490839
aF4.5546231611827528
aF-2.3012723874438552
aF5.3178431504645154
aF-2.8521965850693767
aF-2.2095572048572052
aF5.0443173942216344
aF-1.9026501296627396
aF0.67611708612833454
aF-0.32071521125891989
aF-2.967464460120294
aF5.2434819712541705
aF0.9630048385419665
aF-0.74398412568359706
aF5.0093589645152754
aF5.6905342670118024
aF-3.8091780399716133
aa(lp43
F-0.580952989585232
aF-2.1872836580117352
aF-5.0455142200924357
aF0.63374696948990983
aF-1.5302979623752782
aF-4.5689357090551281
aF-1.1819705036766375
aF-1.034099588867557
aF-0.53266064333119423
aF-4.1130997496167021
aF5.6885349961017369
aF2.3458323682673932
aF-2.9906374467537273
aF6.8405926473063321
aF7.1798691643108663
aF4.511679417759729
aF1.5675870946661095
aF2.6656670793370361
aF-1.5486052624081554
aa(lp44
F1.9851139864841949
aF5.8919298467303838
aF-0.59125644030189095
aF-1.6315002880762903
aF-4.2234349072472144
aF2.4675814341910955
aF0.65334763367706183
aF1.9945277694186758
aF1.2353411955464801
aF6.1504359192800413
aF-5.0227079813682849
aF-0.4556878197747361
aF5.9599938146285618
aF-0.49704902255163719
aF0.78190990825263063
aF-6.9000876173200929
aF2.2089415197011211
aF-1.2092477417278551
aF0.61901146358029713
aa(lp45
F-5.988432406163704
aF-3.1673055576783673
aF4.6383738630899831
aF1.1502920363180964
aF-1.5588167274158427
aF-2.034501713161105
aF-0.93069642223373683
aF-0.45330886138098558
aF0.78838283722147418
aF-1.1431948625886834
aF2.4839935309249586
aF0.88932067825122141
aF-4.6897136442956358
aF-1.4701934877620488
aF-1.2555945152173857
aF-2.0065650751098687
aF-1.2407896886015026
aF1.1187289724350271
aF4.2042935894745774
aa(lp46
F1.1355992944480002
aF3.5906163834324887
aF-2.2850957930347078
aF-3.1787974703884618
aF-1.5376316780149979
aF-3.8249655979883936
aF-3.4633194323760441
aF-0.62188925444855037
aF-1.1076442457425797
aF-3.1086614806696149
aF5.2408829906713184
aF6.7256808766045193
aF-0.074996859494777884
aF-4.4448977668273777
aF9.8729016128364719
aF0.42967234930749243
aF-3.6834808379393964
aF2.7781321623059441
aF-3.4294002036160904
aa(lp47
F1.9822125240989834
aF-4.6004156958367304
aF-4.0504165900444065
aF1.6519508209830436
aF4.8235710304631088
aF-1.7536638886858713
aF-2.7004706005470509
aF0.41428675889428412
aF-2.8497571573001852
aF-2.7368882033868052
aF-1.0619425584932314
aF-4.1934687658153456
aF0.034533981274158937
aF0.61061493831032854
aF-4.6511234034500601
aF-0.5794566712061201
aF1.3087400830637028
aF0.24536681330714277
aF-2.8094836071915461
aa(lp48
F-1.3789567014772346
aF2.5706508115362174
aF2.3161107392081326
aF1.0857718592985657
aF5.5035520276279302
aF-1.9754614568118731
aF-0.99385756707639028
aF1.209488914479488
aF-5.9481151678144268
aF-5.4432677306374169
aF7.6124152094297228
aF-2.4081457228581926
aF1.9224001198651441
aF2.7849487839407061
aF0.60846929368425551
aF-4.0936998776158449
aF1.7908331027538393
aF0.016699201568493749
aF0.80860483621369639
aa(lp49
F2.411759841466957
aF4.7612601384735846
aF2.6275724887633691
aF-7.8984971892220592
aF-0.88752875315514568
aF-0.725917637966767
aF-0.73461828392135808
aF-0.2519007411140684
aF-2.4059098517449673
aF-3.8330261024965786
aF1.5996915926986766
aF2.4812069624370272
aF2.8234582339258361
aF1.161192977712195
aF1.6183661821077355
aF-3.2400949691996845
aF-1.1044327306126285
aF-0.061727779369624036
aF-4.1541421746565153
aaa(lp50
(lp51
F-2.3189431297188223
aF-0.47881541234635694
aF-4.4806796889280509
aF0.96740062889116452
aF-1.8136491236110162
aF3.743486973852971
aF-2.3527819266072743
aF0.8713849439863075
aF-6.8502282898209303
aF4.9383780693379311
aF3.5277787132059926
aF0.47134669825152214
aF3.2237646204542418
aF-0.37513785814500222
aF-2.7685583250715786
aF1.7961980535014384
aF0.91421313589134412
aF-3.7919548784848738
aF7.24122989275034
aaatbag2
(g3
(I0
tS'b'
tRp52
(I1
(I2
tg6
I00
(lp53
(lp54
(lp55
F-4.6446774450035386
aF0.93710111392715301
aF1.1694439287372858
aF-1.4336055683686197
aF2.2380426697322964
aF0.67329279861532021
aF-3.0811004369217758
aF0.10962434897998075
aF4.511315936347926
aF-4.6103559617218544
aF3.1135246881877121
aF2.3836005025446285
aF6.5149861320488505
aF5.4976551169497565
aF-5.1663214635279706
aF1.7916419990100432
aF2.9019688706744873
aF4.8608786373280051
aF1.1431347782389099
aa(lp56
F-2.5756383566620511
aF7.1997834524266118
aF0.75022297326591458
aF0.041156271158098751
aF2.6180230195845517
aF0.31296666646255911
aF0.85411649958510782
aF3.152637061555863
aF2.5369958484839139
aF0.64240374817307555
aF1.236547705575316
aF-1.0212474148144568
aF-4.9004818812530475
aF-0.29714235130525934
aF1.9803147032465089
aF0.38954837513032886
aF-3.6852693260147182
aF-4.6790638951961903
aF1.9234681574292396
aa(lp57
F-0.14941911946437741
aF-3.4301580473373363
aF4.6016887160776969
aF-3.3444291130830055
aF2.5964398187542708
aF1.6968106869464836
aF0.61473804153561229
aF-4.9348663853690891
aF-1.4801056938019468
aF1.2804884933370413
aF0.12617271703012745
aF7.5903970990253935
aF3.7151754484870803
aF-0.93549879782976064
aF-6.7917834151873668
aF3.6613312302659562
aF-2.7841120960367474
aF8.2012099848694771
aF0.65025137858762272
aa(lp58
F-0.5503324782142105
aF0.91710470564568225
aF5.3906916777415832
aF0.035663387544769526
aF1.556279646954291
aF1.767755579242529
aF-6.0726490253276193
aF-0.61695155080826303
aF1.8891791882105076
aF-4.8578535200645945
aF1.2010679506328248
aF3.0166497300115815
aF-2.6603533476585053
aF-1.6042435860518853
aF2.3851889501584669
aF-3.329004999904539
aF0.92946238816855864
aF-2.7070040809254268
aF-2.7612923399297964
aa(lp59
F6.0860679422906498
aF-1.9843057168049838
aF2.3691802272055882
aF2.7353009264446428
aF-0.085161240635457686
aF1.3089100887542537
aF2.2510341883901508
aF-6.239202685129337
aF0.30189619500208392
aF3.2617453237198872
aF0.39721879997017451
aF-1.1042215447639421
aF-2.7372127345207478
aF-5.0829018472686247
aF-1.978543620788435
aF-3.7962215676049471
aF4.5458740158746718
aF-3.3528098256563843
aF-3.9069438274370802
aa(lp60
F3.344634317819799
aF-0.68597508366282767
aF0.42390722627146482
aF-3.3940529160084201
aF2.6146083874256751
aF4.3206512981605627
aF1.6774846249240265
aF1.6148518076143357
aF-0.31541925543480587
aF-0.020384379036061526
aF1.9072610596891804
aF3.4230911560666377
aF-4.4059463779019659
aF3.145653128656595
aF0.54405904894470458
aF-0.70482308429402485
aF2.5866264219588619
aF0.53410124689729876
aF-2.8925001350560189
aa(lp61
F-0.47984108715692564
aF2.2634593739434052
aF2.4224451611282904
aF-1.1455220967370261
aF2.610440574591407
aF-3.1085181972895239
aF0.98390513928319834
aF-0.90934420598490195
aF-3.1999364474533705
aF-3.4841447194147359
aF-3.6151925538763616
aF2.0149159884428611
aF2.2063004631430996
aF-1.9373223131076258
aF-0.3868398616200226
aF4.5323112003615735
aF0.41159057639130414
aF-4.0346254599314646
aF-2.6594026968122502
aa(lp62
F1.5308750372311895
aF0.62913470115903392
aF-0.26855547077063729
aF-2.6026590412984261
aF-4.1036869642041882
aF2.1806740780085128
aF-0.12582775675595437
aF2.2315329702091411
aF0.3506480445137512
aF-1.2080508076362069
aF-1.5457151893177219
aF3.2697604773858475
aF-7.4835421883407216
aF0.84574683460836642
aF-6.2504565397393002
aF0.72094765211487888
aF5.2632177513638192
aF7.278560554702505
aF-2.044389718176947
aa(lp63
F0.014547410760523016
aF4.7120693747317244
aF-2.8846127862103677
aF4.4594678533015992
aF-1.5865406180233819
aF1.6187565843641987
aF3.3371644143274688
aF5.1223762705848932
aF-0.016151994919538858
aF-0.65340652766186502
aF6.1046748435993186
aF1.1196276769768301
aF6.0715808975809553
aF3.8767008378965859
aF-0.090814411747339119
aF-5.9000237939614566
aF2.2724330012065028
aF-1.2653701990875512
aF0.85956065292189232
aa(lp64
F-0.039902685429719489
aF5.1326719628427435
aF-3.0727464098518684
aF3.4555461745809537
aF-5.2395222220153146
aF4.4615158558790347
aF2.3619375156998266
aF-1.3381095775300809
aF-5.6246286190828787
aF-5.3134018048382874
aF-3.0720418588612377
aF-0.87852701504348163
aF1.0628988729336004
aF-2.1987090994327003
aF2.1085669212550737
aF2.2145881353544974
aF-2.9804561423919904
aF0.73837680450496368
aF2.183130956587005
aa(lp65
F-1.822259745387226
aF-0.14714049361936485
aF-0.55506837062262382
aF-0.33873548841375506
aF2.9247450465524589
aF0.78089195218314256
aF4.5647959995293794
aF5.5974776555771175
aF-1.7963419465367665
aF-0.33929194604052637
aF-2.5704862915714863
aF3.0268561478770213
aF-3.7954834507015636
aF-0.20434612956800455
aF1.9892174130214528
aF-1.0439233418025993
aF-5.8673538897430433
aF-2.5769051551540887
aF2.2586705919723844
aa(lp66
F-3.5305318207009995
aF4.2219790462677933
aF-1.1039084544603215
aF3.9174981656621353
aF0.54663011666433303
aF1.2258470609906398
aF-0.49331593766247128
aF0.92644222154792844
aF1.2636511479860222
aF-2.7701396052108183
aF3.1128633253148652
aF0.64698952127012599
aF5.2653650877225058
aF1.1086084586861342
aF3.0261772473842607
aF1.7562897810768052
aF-2.2581362568061225
aF-0.27454475460581551
aF0.76307685118804747
aa(lp67
F-4.901636763811581
aF0.53410174153975021
aF-0.76912613986061407
aF-1.8239632818870251
aF-0.87102082920618662
aF0.11404686118013466
aF-1.801577053717933
aF-0.56757445617187419
aF1.7204125831842014
aF-3.2796769067353031
aF2.4902662859678455
aF-2.3220412584686652
aF-0.68536106366426019
aF2.3587991018512517
aF4.2185435921817067
aF0.20435964980687465
aF-4.051009118902642
aF-3.2163958895275315
aF-2.9208956534295543
aa(lp68
F-2.769780103097963
aF-1.3569978248121557
aF-2.614075257041895
aF5.6970104974644062
aF-6.3688672645062123
aF-3.1231933721218357
aF-5.7439405846777447
aF-1.1123398580947852
aF0.13970012237397988
aF-3.7764192639561984
aF0.2835545462887597
aF-3.7786172204483628
aF2.4443708406476232
aF0.38382280922034362
aF-0.58529696379386553
aF8.6644989677032438
aF-6.3398603180526267
aF6.2889586220915419
aF-2.951439599239484
aa(lp69
F-2.1054070946307872
aF4.7336146588763395
aF-10.655854541729701
aF0.81860276416641486
aF5.9889784969963333
aF0.91855388812061278
aF-5.6899904090750919
aF3.7667111979679815
aF-2.5773171868148492
aF-2.2711965911552094
aF1.203830976742158
aF-1.6064057754240217
aF-0.26338021737617545
aF-3.5388293118698471
aF-4.2602046219919139
aF3.2424072004314781
aF3.6082015358624435
aF-0.31616906732735184
aF-0.75037901508252947
aa(lp70
F5.1003688748790026
aF-0.29395677487263711
aF-6.4942170731737434
aF3.0746552386916681
aF1.3201859055171967
aF-2.5861590132009171
aF-3.881800876269061
aF-3.281524932406187
aF6.993467270565203
aF-5.3421852114525112
aF4.3951917633894695
aF2.5350209713968375
aF-1.5921389096495775
aF-3.0623059070216154
aF-3.7113920363080819
aF-4.2091889496530284
aF3.6598797486453578
aF3.0872391037495484
aF-0.47159052177250538
aa(lp71
F6.0689316648299565
aF-0.44723440781978885
aF-0.26511900106299519
aF-2.7061086979589359
aF1.1486757990012337
aF-3.5929591180283986
aF0.90902294399736783
aF2.3044950305965286
aF-5.1341577530390605
aF-4.1932154719813219
aF2.8977658559426924
aF-1.3930676871370544
aF0.21475690627984595
aF3.3080643177091917
aF-4.0270337572370369
aF4.9105310261638895
aF-1.4338258872619871
aF-6.6752581637213622
aF5.002786295709174
aa(lp72
F3.0306362866611494
aF-2.6447237097007297
aF-2.8309796345561011
aF-0.56699414469580001
aF-3.6612852118707817
aF-3.1026096386679369
aF-0.077271494560882364
aF3.5518591570498508
aF-2.1036868808057592
aF3.6885547322777272
aF-7.3889715370760545
aF5.9309085731781783
aF0.75472301639633987
aF1.8714774092842408
aF5.197336048398407
aF5.3920631134645571
aF1.4592682604248202
aF4.3670810194668359
aF-0.34733211843676637
aaa(lp73
(lp74
F-0.72960403265523011
aF2.3859896234612092
aF-5.5914733290306495
aF12.318240797267988
aF-3.0070438581158077
aF-3.004268229194218
aF2.8897420029597849
aF0.56861558514317201
aF1.8307500267102914
aF0.1354199854662142
aF-3.8616890813671763
aF1.4542337775244785
aF-2.7814438414985201
aF-2.5394111114909643
aF4.5021626579989702
aF0.39051377723762792
aF-1.7848212820710796
aF-1.134752011034277
aF-0.74787466580172302
aaatbag2
(g3
(I0
tS'b'
tRp75
(I1
(I2
tg6
I00
(lp76
(lp77
(lp78
F-3.0439027100145548
aF-5.0395039872594678
aF-0.80704558505621149
aF0.63259255888125887
aF-1.8954853235520372
aF-1.4098043745351789
aF0.21372875091892513
aF0.29155331645636312
aF4.8991596662800871
aF-3.9774520340153603
aF4.6954091211662465
aF-4.7157694400416625
aF-2.6137468649224451
aF-1.5590335047561821
aF2.3078683637858073
aF0.99270903367444774
aF-1.1613897734197709
aF3.9401984576863351
aF0.8180383018764712
aa(lp79
F-2.1731523824421002
aF-3.0319851165896559
aF-7.3857888245627699
aF-5.304898150467884
aF-6.2397506470669653
aF0.71744493128038356
aF-0.34600534418971618
aF-0.026626734509494154
aF1.2837124241410691
aF-3.0220049323356206
aF-3.1663528754219583
aF7.036329054450718
aF-2.6753373492771684
aF-5.0048719754647468
aF-0.78212307002167814
aF-3.7308939417222398
aF-0.11118961446937196
aF3.9843201971145468
aF1.458808179423364
aa(lp80
F-2.6517239564359536
aF6.0452522262369222
aF0.77810026146302624
aF-3.2395403145931541
aF-4.0188363495148947
aF-3.4518776989400473
aF3.2112219115028866
aF-2.5903698611630057
aF2.2661798696296911
aF3.082582720620779
aF-0.11318444705885738
aF4.4813300679831807
aF-3.1676569290923222
aF0.58159884501310233
aF8.5140809340923962
aF-1.4371208602165244
aF-3.1107399971229488
aF3.7600954492137721
aF1.2988415259526449
aa(lp81
F-4.3683381412716358
aF1.1468108095299141
aF-1.12143867740591
aF4.8433584069474174
aF0.18220443287576429
aF2.0088800327917853
aF2.0665953197104336
aF5.2094512790440968
aF-3.7417530540914385
aF3.116002528687547
aF-2.6812134610174208
aF-5.8909459777117785
aF-6.5487981171030265
aF1.3931211102674379
aF1.5534697605917338
aF-0.62582167758915097
aF-4.0711773660192794
aF4.0325406059510147
aF1.5595088442608476
aa(lp82
F5.626835843669328
aF7.5987489846723824
aF-1.2760976963874096
aF0.057577426439927568
aF-4.2047866718484528
aF0.88576871331984997
aF-5.6046534294343404
aF3.92927592157635
aF-1.2069896667015241
aF0.11116034002130443
aF0.71074767770831393
aF1.0918512152129645
aF-0.87000048682247044
aF-4.0982315385062273
aF-7.4576831448625605
aF-0.44458216674346629
aF7.3274484961927833
aF-1.5990472854971483
aF6.2257400417122133
aa(lp83
F2.3288562160861837
aF-0.2080160407811176
aF-0.0084972494956022642
aF-2.7107726959640805
aF-0.17366255844179351
aF-3.9771440988320523
aF2.232679627409746
aF-0.68311909013130745
aF-1.4523722620782349
aF3.9362831891451062
aF1.8837336491132586
aF-2.3217008297486035
aF-1.5890197924664893
aF-1.5731300307748171
aF1.2746122372209179
aF0.40686633096769731
aF-2.3366599032068267
aF-2.7561305149411033
aF-3.3769263487750223
aa(lp84
F0.77367891997219829
aF-3.516608685826343
aF-4.3703239672784289
aF-0.022443445621894043
aF-1.6144649842852785
aF-2.315619082321041
aF-1.1985076054178625
aF-2.1214037280845868
aF-4.1054238248410924
aF-2.0907562213146016
aF-4.4748562560947134
aF-1.1490880817208948
aF8.2638673458719847
aF-0.1066118078972301
aF4.322036927279818
aF-1.6432540056490315
aF-1.9561585620861579
aF1.0454163217880976
aF-3.7721968896699796
aa(lp85
F-1.7447457624573413
aF0.38405245959366507
aF2.0515703240231944
aF5.3614749521369092
aF2.8925025085938629
aF-1.7235489951942371
aF1.4078997182005164
aF-5.4308962527967575
aF2.7446670565465063
aF6.5053912841258086
aF0.43912029681545717
aF-3.0182162486925437
aF-1.5598410939094112
aF-3.7101424220418964
aF7.9302541126566686
aF0.94583934406382508
aF0.096172747564157474
aF-1.6866039070545473
aF-2.9660395667923263
aa(lp86
F-2.6073525274252671
aF1.3481594702762261
aF0.71187159193208882
aF-1.9172847535535289
aF-1.3720046892873821
aF-2.7397763345106201
aF-1.9710527382335923
aF-4.647060473778807
aF-1.7639906611390648
aF-2.2784190974432996
aF1.5254604031670089
aF-0.74762651038343675
aF1.2746875299339107
aF-3.1726763483494711
aF1.7601030593984439
aF-4.8851292324000557
aF5.8326279129305663
aF-4.6695552652752479
aF-2.3147379786214839
aa(lp87
F-3.0838253208394248
aF0.55904914066014855
aF4.7536799219216794
aF0.57753299996448826
aF1.5222227757850626
aF3.8737343817923442
aF-0.080557720411440714
aF-2.1832800717151946
aF2.5922357867052912
aF-1.5731192630868174
aF2.6309841393742905
aF-5.5076497611049877
aF-11.009334694249503
aF-6.8388563964601774
aF4.8116325842816954
aF3.7533990639300994
aF-5.3449532732310674
aF-1.1412299204811158
aF-2.0137668603226091
aa(lp88
F0.73722299593310181
aF0.10593083582014762
aF-4.5991587590507805
aF1.1688264723776138
aF-6.4401272419297051
aF-2.5945224496271049
aF6.1874477295134342
aF-1.2888460419161416
aF-0.30175593912365983
aF-2.1077303530535483
aF0.9482671233104818
aF-3.485669055333537
aF4.7628381060922518
aF3.2822044468710607
aF0.62801438012111999
aF2.9462715972743867
aF-0.043464482782813951
aF3.3862107206320862
aF-2.0686327312625843
aa(lp89
F-1.3823243109279431
aF1.4838969809917273
aF1.8120585099045965
aF2.701527805892443
aF1.7218961546470579
aF-0.449092784896584
aF4.9587854218481668
aF2.2692375152265747
aF1.7142273077902375
aF2.5977953729621968
aF2.3281528338177373
aF2.4855813273721301
aF-1.0473567965330222
aF4.0920435852916297
aF-3.2994542835200313
aF-3.3391865992877543
aF-7.2778706437131264
aF-3.8029501073087206
aF-3.800709695068424
aa(lp90
F1.8499185314204392
aF-0.055468899773661547
aF-0.052826404730932447
aF2.7587720430386145
aF6.2913663655666596
aF-1.5395648816094822
aF-0.72481787388843233
aF-4.8010205062821951
aF-0.21249738033628079
aF1.8701192033249361
aF-1.4720919037376401
aF0.22008927896212302
aF3.9536104637822547
aF-2.854378337899246
aF7.1012634864865163
aF-3.3219793661864796
aF-3.1233130226345223
aF-0.042300162762700932
aF-3.6309041565459501
aa(lp91
F4.4146374468355356
aF-0.59579301512215466
aF-1.3020433581840536
aF0.77500117517389078
aF1.2668038327115445
aF3.8288904481264767
aF-3.7427612374206909
aF0.43130626724642845
aF-1.8935729997147612
aF-0.56071212028134421
aF2.6630727965812775
aF-3.4229276986133197
aF0.44681826244803369
aF-1.550797124242695
aF0.18183883198573186
aF0.74784957021427212
aF-4.956875824591175
aF-0.98520096482292319
aF5.0100971984356955
aa(lp92
F-0.28830263948233925
aF5.0299343439453752
aF-3.8480887159664676
aF-4.2144400050975959
aF-0.40113594175213796
aF1.5890578785407581
aF6.2860672283173811
aF7.8130531221981512
aF-1.5983926595434323
aF0.94160600379239934
aF-0.50862700692329277
aF2.6931014552994723
aF2.2328029434812269
aF8.2700573925833236
aF3.2778741770775235
aF-0.47676680189214898
aF4.8782906958218311
aF-5.8360623832750624
aF-2.6283647057723893
aa(lp93
F0.14432976486819687
aF10.78197768137206
aF2.5400945501243148
aF5.8338610961023232
aF-0.019629652644371443
aF-2.9394872445162084
aF-2.9560113493559994
aF6.9223098602317634
aF-0.77590715629315166
aF0.17242940349186892
aF-3.9583062326716627
aF-0.62625496137292147
aF-1.8569105832227233
aF0.94504693577660204
aF3.6009439205294553
aF2.300478165372482
aF4.3775584228625029
aF-2.3073128799973217
aF2.4982107055306453
aa(lp94
F-5.5494717383319108
aF-4.8640385562312689
aF-7.6737997666380862
aF-1.3601459092237855
aF0.65952219179781124
aF0.075244706488818244
aF1.3289403278329572
aF2.8107795615961435
aF-1.7122066784159071
aF1.6546822553946359
aF-6.8937455809378241
aF-1.3913182248468396
aF-3.0505812384625424
aF-5.0415957644396441
aF-3.2194392493990343
aF-3.1958823125827296
aF-2.2011373288707321
aF-7.2143051890969261
aF8.346991175575539
aa(lp95
F5.570194389063694
aF-1.8332878137607986
aF0.34096593758606303
aF-9.3103332640977836
aF-1.172030338743284
aF4.7022568338502513
aF0.17902895336175548
aF1.0639980409420056
aF1.0567682694456746
aF-1.2431878173834801
aF-2.411209204371132
aF-3.6294522559155911
aF-2.9841380169644247
aF-3.7967405007549631
aF-0.75731855860039454
aF-4.0216098888346297
aF-7.8832149858700022
aF4.8430730840769254
aF2.775583272477768
aaa(lp96
(lp97
F2.5872927651254858
aF-1.8045339063428374
aF2.2497705536476631
aF0.84065461356488047
aF-0.68565137278478727
aF2.7484144307808287
aF-3.1819695740423573
aF-3.4820560297532577
aF-0.52507900754746351
aF3.8694486277441724
aF-2.3778768824742738
aF1.7240846296560521
aF4.6027362023926326
aF-1.1929949536899556
aF-2.8077721886034115
aF-0.59028758171010942
aF6.4487947173111992
aF-3.0363454725194803
aF-6.6398047932582696
aaatbag2
(g3
(I0
tS'b'
tRp98
(I1
(I2
tg6
I00
(lp99
(lp100
(lp101
F3.2550069401521458
aF1.507999805698832
aF-1.7833625205342178
aF7.6382879961927044
aF4.0063770656236519
aF1.0710583494101831
aF3.4565638638649605
aF-0.43179062061314755
aF-0.75767186561597089
aF-4.2176409707280138
aF2.3642430745665233
aF-2.7964430893370471
aF-2.4103910211038344
aF-0.050481419368682612
aF4.6409562781350981
aF0.40499106523538997
aF1.5666699059022613
aF-0.34742207183024421
aF3.6040385443062615
aa(lp102
F-2.3369313656976067
aF6.4180351004131566
aF-6.1653026657613692
aF-0.78429003584287893
aF1.167065287643321
aF2.8575905585142616
aF3.8447467976276419
aF-0.016280414825503742
aF-0.31246293497185162
aF2.5556128280614101
aF0.61967331912464119
aF-4.4495693070267883
aF1.59555794453517
aF0.20867180782251327
aF1.6022095102845679
aF5.4525815291861175
aF-1.7784653618819231
aF0.021581212632791447
aF-0.0057676283567976716
aa(lp103
F-3.1663575172170919
aF1.5888745403044404
aF-1.5185531005495854
aF-3.3404459710104533
aF0.37195792185841192
aF7.8036641545316803
aF5.0415606965829376
aF-3.7124760457255643
aF0.67497597142158694
aF2.3692097589801677
aF-4.4317310666431933
aF-1.8804256028301372
aF-2.8785100815034217
aF-0.37876805432081773
aF4.1701633774541689
aF-0.91170315288615267
aF-0.7257791044511599
aF-7.5416542815157879
aF-2.1641028006529655
aa(lp104
F2.4074955653151893
aF-1.5257943358406065
aF3.0366051971556791
aF-6.3167480597069714
aF-3.228392239663374
aF-6.633873571839537
aF-1.3005318677721791
aF-5.5890185682241906
aF-2.7699924181111895
aF-3.6008638257707699
aF1.2183941370823108
aF2.8343095812811545
aF0.24967021908638276
aF-1.6741866605754958
aF-5.5562013070770586
aF-2.2949057929162326
aF0.12821567900322839
aF-3.6667044501171615
aF0.3310439471561869
aa(lp105
F3.4532994852521033
aF-1.3966263193774699
aF-1.8970116993011894
aF-0.093516388985298238
aF0.39301448986764281
aF3.8525718361484063
aF-1.0783673041310782
aF-1.2845966346002342
aF1.1277790582368641
aF1.5960383943437697
aF3.0909638494796861
aF1.9210275483341539
aF-1.1005135220922466
aF0.46752857478579213
aF-4.3160382395869421
aF2.1717736835106027
aF5.522235597833494
aF-2.9641784691732531
aF2.0957783560540011
aa(lp106
F-2.7860899607826473
aF-4.3649605588411813
aF-0.37953215476501645
aF-0.52101032814365378
aF-0.21328015603620812
aF-3.007333787590968
aF0.485118523070456
aF1.2106702556362499
aF-0.0071002596219728736
aF0.89120361615013965
aF-0.2853648462715993
aF-2.1424338596305144
aF-0.55258082324899482
aF1.5200753542600451
aF0.11232892521988805
aF1.3824631037858874
aF0.91482255340780083
aF-2.831819668372757
aF-4.917325708016981
aa(lp107
F-0.47138372256039174
aF-1.2280712760144283
aF-3.4264694561020237
aF3.5298388470572091
aF-3.9546989270691175
aF-4.2506460756637434
aF0.1301892087032952
aF-1.9634593333481427
aF-5.7721266307234824
aF0.952919085456012
aF-5.672203404246372
aF2.7686116286745532
aF-1.0769785029305665
aF0.169572346776798
aF-5.1950564521952325
aF-4.646837854594466
aF2.4073573208765313
aF-0.75575120622599723
aF-3.4268643445346703
aa(lp108
F5.3892934234736423
aF-1.1037515522631882
aF-1.6803297315702246
aF-2.0717334669295511
aF-3.1829477897307221
aF-6.4681422059043605
aF-1.2810077774365261
aF-1.427319868447475
aF-4.650287316508078
aF1.7843000791273147
aF-2.8158587851409767
aF4.2465558054604564
aF-0.28100462599458897
aF-3.143088578851323
aF0.10996147737961798
aF1.5758302068786241
aF-5.1831820005128888
aF-2.7742884847557101
aF5.0570813362227627
aa(lp109
F4.3433208507633028
aF2.509442532984056
aF3.4794761331569641
aF2.4062359821244126
aF-6.023518265839952
aF1.4677234871741571
aF2.5574107158636852
aF-4.8840787546207229
aF1.4100520737165678
aF-1.1852233172479265
aF1.636041768094707
aF4.4592607771085131
aF-2.6597969037651401
aF-0.62595187867109658
aF2.7129672532527938
aF-2.9697704134023666
aF0.41778904406547929
aF8.8495852755690763
aF6.7121845579649975
aa(lp110
F1.7067325303454448
aF-4.3275158490435439
aF-0.26702096991558449
aF-4.2563473488914889
aF-3.6779615837774853
aF1.4903263415352954
aF-0.012199033079656738
aF-0.54249417214070161
aF-1.2222191453994813
aF-0.13742713417734465
aF-5.2258526258501252
aF0.57793464115034765
aF1.6784542060942442
aF-3.1569042387853945
aF5.7728414607880474
aF-1.0189819890526626
aF-3.9579876320186926
aF-0.96558314420923663
aF0.14372425735113892
aa(lp111
F-3.2917390829237303
aF-5.0385300506146011
aF-1.2512351215894548
aF-4.7216907062411897
aF3.1712884632237559
aF0.53707808846621563
aF4.55113209074044
aF-1.8551880172069608
aF0.23025551082664089
aF-4.7433248833375901
aF-2.31369710321164
aF8.1045539072996338
aF-0.3336553090863929
aF0.61868316481214114
aF2.5303329276109912
aF4.2327443596020213
aF3.8819013799117563
aF1.8654220736483511
aF-0.80530784211175221
aa(lp112
F-2.4837909516150387
aF3.7945788597114603
aF-1.9702737418861322
aF0.6529607634687008
aF-1.8397691509420659
aF0.61148560164473531
aF3.2977046027485168
aF0.75700888911703468
aF0.021129028906769876
aF3.4953640419721919
aF-0.15876219711707557
aF4.7661222989935794
aF-3.4657349093174656
aF2.5239062506083929
aF-1.2061433272362991
aF3.0764751991568611
aF0.38556481043116037
aF-0.60146424773547869
aF-1.5717857300743709
aa(lp113
F1.2845685058686533
aF0.91550204085127662
aF-0.25880180616702969
aF-3.0042899680116504
aF-4.2250089684252607
aF-0.26403475408297838
aF4.0676122594868964
aF-0.41239836322960699
aF0.79729401506328845
aF-2.1086231473000381
aF-0.70232988911899996
aF-0.69968208337244431
aF-1.4629656962784132
aF-0.95283203324560883
aF-0.089021457506738511
aF0.101438800140495
aF5.8056835679706413
aF-3.0424225029531451
aF-5.5946489096890737
aa(lp114
F2.1665569368006117
aF0.080971566098736569
aF-4.2569678546424026
aF-0.45844713832957662
aF1.0426639442864605
aF-1.8154647940943858
aF-0.42498800890997268
aF-3.230065241136737
aF-1.1390180641335752
aF2.6206092324744255
aF0.25129025095610902
aF-1.0884387704702172
aF0.74126963410083546
aF0.43413591554671871
aF0.8069949442623392
aF-2.3981128757246366
aF0.55052911111282998
aF2.4722750207665092
aF0.11158543164178522
aa(lp115
F2.9228405535368669
aF-6.2388311639177534
aF3.1413118145445114
aF-3.4202023304302864
aF1.3741742109560253
aF-1.7910683703494876
aF-0.50043255305476109
aF-3.0988734739676826
aF-1.1534193543696907
aF-2.723343987954661
aF-0.59796730325834346
aF-5.7437386247633251
aF-0.82066830853297912
aF1.2465795659854901
aF0.26813883391533755
aF-2.868121690611543
aF-0.2312883059927929
aF0.63972044359642821
aF-6.1858180145197084
aa(lp116
F-3.215284539067881
aF4.7685332645526799
aF-2.108955799752898
aF-6.7663255901222765
aF-0.38580142384803273
aF-0.6802776337477966
aF-2.8797618059231005
aF-5.0186658686448844
aF5.1237554335940318
aF-6.335232506561379
aF0.23030942481424199
aF3.5386823811055641
aF-3.5791031852281834
aF-5.8193782724695238
aF-0.30386109977977438
aF1.9919472392489008
aF-4.264744931974378
aF5.9865397398003255
aF1.7824551082260329
aa(lp117
F-1.5984472388207338
aF1.5658965295634555
aF5.6398129817919687
aF3.6757528425291972
aF-3.6388561573714839
aF-0.58865981650877042
aF-3.8894347868975716
aF-2.6965898536762394
aF2.8219679408010667
aF5.2062762956580446
aF1.8558702559190403
aF-1.7998684081824963
aF3.2510456536747214
aF-2.9801747522671596
aF-4.5930656089588471
aF1.366359306158045
aF-5.1704177697065887
aF-3.6815805535291384
aF0.21715771649541421
aa(lp118
F-5.0119022683575327
aF0.75457366977291762
aF-0.9921332189447889
aF-1.5969207549832889
aF-1.5714644460795222
aF0.48459789496827665
aF-5.6190737883502404
aF1.0292991342914919
aF1.9143761153718684
aF-2.8432135071951166
aF4.6417229669295139
aF-0.81767632580834948
aF-2.1319772439528064
aF-0.44205153907051314
aF-1.2921191522050888
aF-2.0250211750983671
aF-1.4488094673721701
aF0.1801019960882527
aF5.8296694073392281
aaa(lp119
(lp120
F-1.3714304702655677
aF-4.2856009335822005
aF2.7192025549204528
aF-1.8068913709552616
aF-1.0126590894743757
aF0.7343253684090163
aF-2.7589857621780967
aF3.4726617607265911
aF-4.2789119576472912
aF2.8796151468302926
aF1.4661614213327971
aF0.4365653087022181
aF-9.7492844346872118
aF-2.3592749283372525
aF-0.41109890075126715
aF-6.6656043551262814
aF-1.8362656527835002
aF-10.153226406110369
aF-2.3591892846090872
aaatbag2
(g3
(I0
tS'b'
tRp121
(I1
(I2
tg6
I00
(lp122
(lp123
(lp124
F-7.7900435908651993
aF-3.5940869899249108
aF1.0855313483049014
aF-0.031059210394843106
aF-1.579936027251611
aF-3.8949848175852377
aF3.8240708857022296
aF1.8159601250961239
aF0.69659731834777738
aF-2.8820106932890086
aF3.2007057609983507
aF1.4232513024203166
aF-5.8072788521800964
aF-3.9961982686249931
aF0.76268867023015685
aF3.3960788104722903
aF-2.7656336491398341
aF-4.2680401200408262
aF-4.6176802412885332
aa(lp125
F2.6960971173098311
aF-0.054620027221071607
aF-1.9091813413378533
aF5.5789093970615076
aF2.6520365422050958
aF-1.902842474595988
aF1.9173788296495156
aF-4.454453690724355
aF0.34705286773455624
aF-0.43174218946556986
aF2.8103741657237578
aF-8.9616942085854188
aF2.3602710104710178
aF0.7619366769757796
aF-2.8328685451057822
aF2.9378367120977247
aF-0.11124763530834714
aF-0.4798481683603999
aF0.81416950527836707
aa(lp126
F5.1626502520478557
aF1.4983588255900566
aF-6.9058967504343762
aF-3.9502782785607029
aF-2.9410394106158129
aF-3.9000120029727969
aF4.5854813073236533
aF4.4661398662977989
aF-3.143264616856571
aF2.3542626657878274
aF1.1467579138985704
aF5.4161965320594021
aF-5.6012793523168511
aF3.7961156302014407
aF0.29819221876296975
aF-0.85850449248409344
aF-6.2440511092692343
aF-4.3165938707689717
aF6.1869727716766283
aa(lp127
F1.9085713253686332
aF-1.5617081529710597
aF1.0235668657905548
aF-5.8626299534548112
aF-2.1363681945157444
aF1.3529544506376261
aF6.0522667805051578
aF-0.97891822684635177
aF-0.9438487159052722
aF1.5959454964243525
aF2.2832830525381809
aF0.71651381733619957
aF0.34555469085827761
aF5.2675774127703834
aF-1.3565057929858078
aF-2.5493693907359365
aF4.296369129481878
aF-3.3738631849332368
aF3.0633204813912567
aa(lp128
F3.3266181480532206
aF2.1874010672454447
aF0.28522113098865459
aF2.2110842495958929
aF-3.9314471795582171
aF-3.5080903695055605
aF1.2936986174890266
aF2.1125918618163229
aF-3.1482722253859228
aF-2.6973540805520355
aF3.900184325066089
aF1.1249947805454759
aF-0.88339686467391509
aF-3.6528953373248005
aF-2.7361801932892198
aF4.2125929814257805
aF-2.0920230169834788
aF-0.31665852241481324
aF-5.8868483942643772
aa(lp129
F-5.7960088285192874
aF-0.79286480692494643
aF-3.8064151693632482
aF0.24474416598483456
aF0.92093101515895015
aF-8.4530946678977088
aF3.9104680278199631
aF-3.1754705980245155
aF0.63571959057652838
aF-0.90911772726045315
aF-0.90389407388536491
aF-1.4295562197977494
aF1.6394110169255527
aF4.4200169838757022
aF3.0992266965477167
aF0.88195913618706301
aF0.35064081525605778
aF-0.64542015722546264
aF-1.9635103781385186
aa(lp130
F-3.2745681485719746
aF1.1379536400109242
aF-2.2736362278990261
aF-4.2778128483842695
aF1.7025730845007672
aF2.4777764852388082
aF0.89747540082053801
aF-4.461782291370743
aF4.5891682995423526
aF1.3800307200598694
aF-7.1738314126059413
aF-4.671807089040291
aF8.8620055678077421
aF4.4538422723484263
aF-3.7821815492070283
aF-0.49948840772636771
aF1.3822870818280451
aF-5.0732924515249316
aF-1.1580639543969131
aa(lp131
F-6.3432165271249241
aF3.2989554136700434
aF2.4023631850533
aF0.51051642911058059
aF-0.59094669507022413
aF-1.7410863372833498
aF2.0063638459768516
aF-7.1452782894892835
aF1.5290712011840923
aF-4.2342264049957858
aF-4.7249774734615499
aF0.21209854433741479
aF5.299078073602959
aF-5.8503300238511224
aF7.0373141595448834
aF2.4674405763161458
aF-7.7641359867932263
aF-1.4945462891446819
aF-2.429879630375797
aa(lp132
F0.60949957053377135
aF-3.8575021761976411
aF2.4603824181024128
aF2.3508973306636856
aF4.2745987727550965
aF-3.3127539019361296
aF0.3886070107549533
aF-0.76356548260320323
aF-3.4893080254733531
aF0.71473092148542539
aF2.08283240474554
aF3.16496258650796
aF-0.31934995484813478
aF-5.1011144550351526
aF-0.53852441549919816
aF2.1026097908307539
aF-0.74870621229268952
aF3.6947144177711122
aF3.9987039258890853
aa(lp133
F-0.11752577642516894
aF-0.16454997060320004
aF0.67894381019280114
aF-3.4631022044200415
aF4.4438708184188958
aF0.31957040492502314
aF-4.4372024146853368
aF-4.5271617231141041
aF1.7586695906489838
aF-1.996428531317507
aF5.3174194148542737
aF2.1473291841400273
aF-0.53548440405307141
aF4.209292332046112
aF3.8615679829287095
aF3.2791693857814792
aF3.1552145492004842
aF1.689751201563189
aF-4.5397538511879407
aa(lp134
F1.5888216594944116
aF1.7791132913375649
aF3.3885289306624351
aF7.4571200374963373
aF1.3907829197991435
aF-2.8412070680228902
aF-2.4100894376751354
aF3.1660118328831706
aF-0.26397743126241591
aF1.6173015748753412
aF2.5500858986682475
aF-2.4873931934641353
aF2.5266296178437142
aF0.57725896443625391
aF0.13353298146552162
aF3.4992624826506544
aF2.7091862320050053
aF-1.6417074958397322
aF-2.7362921919352399
aa(lp135
F5.660730089650067
aF-2.4543351088637602
aF-3.6515820265820507
aF-2.4435264646120407
aF-0.18300204782085586
aF-2.0937480485645241
aF5.0946335445230337
aF2.5217439768570409
aF-2.9971158652153922
aF2.7814329741427004
aF4.3445041098253565
aF0.26670021321309528
aF0.96363903217597269
aF3.3730000695055073
aF4.5696237538253266
aF2.6913368805586022
aF-1.7945948447815456
aF2.5694310816202566
aF4.5765636626434096
aa(lp136
F3.1816673609001693
aF1.0570886918633655
aF4.8848610134970416
aF5.7821274617819345
aF6.8856777957515583
aF-1.3789160648100387
aF2.9764174620019186
aF1.0801082084973304
aF-1.5205545781745196
aF-1.4784682007974517
aF-2.5713917203721279
aF-7.4102959074875026
aF-3.3795781660412567
aF-2.2538846528174612
aF1.7438143298388307
aF-2.618154063745636
aF-1.6491128095057446
aF2.0087734125928836
aF3.0733583434050669
aa(lp137
F6.8387650325155533
aF-1.6613346729162963
aF-3.6272535000645245
aF6.441675524905258
aF2.8006451767811291
aF3.5291278409290712
aF3.2726549464109378
aF-2.1233186657612775
aF-0.81142020927964509
aF1.2841327820440918
aF3.8891113187320241
aF-4.6199073457812174
aF-6.6728134462149153
aF-0.35736137427140813
aF0.41786452666103679
aF-1.0159872986433209
aF-0.11968945765720003
aF0.73078853979321379
aF4.2616779757576078
aa(lp138
F-0.15510411343258487
aF1.2842065299349972
aF2.0684470935536878
aF-0.15708793559266959
aF-4.0786071259510202
aF2.7140183975814129
aF1.8168971520424479
aF-2.7369817117791859
aF4.6961890788020009
aF1.0676305225319762
aF-0.18829287376342413
aF-3.2790484340237698
aF2.6228410673925322
aF2.6370207651331046
aF-1.3996308438768255
aF0.28526529058499894
aF-1.6592101426177823
aF1.3875473197136867
aF-5.6557951375805118
aa(lp139
F-1.4847600421246541
aF-1.8359146199072571
aF1.1341333151143447
aF2.6695197757331908
aF2.1305485395671728
aF7.1759155771858136
aF4.0566061587493012
aF-0.81932960800842936
aF1.861091081185839
aF1.4270537628022093
aF-2.1612170801688788
aF3.9150074292559207
aF-4.875322840309452
aF-2.1120331412306892
aF3.9305029184406943
aF1.9505678768525936
aF-1.7319310324808668
aF-4.3980719561695611
aF2.3551717912780648
aa(lp140
F4.7852464298390016
aF0.11763148216701608
aF4.7055138097038798
aF-1.7061407821747241
aF-3.8628578988041697
aF-7.460886081540238
aF-3.2843125272304969
aF1.0191721156761491
aF5.3350465790609061
aF-1.9392641271506506
aF0.39788203596159472
aF1.4034305709272172
aF-0.78780103527421064
aF5.895753447675415
aF1.5289857844007571
aF-2.9080119647653606
aF-1.4209662062402155
aF-3.1412706851277008
aF-0.90633598541630744
aa(lp141
F1.7105005313664396
aF1.4560090085864752
aF1.9330502910880287
aF1.5207645780880383
aF6.8857743659588122
aF-1.0486584054528347
aF-5.3780797359590595
aF2.3923622207056057
aF-0.67767796779094158
aF0.30054391543786146
aF-3.0497255390710682
aF1.5533412574900356
aF4.0155423458090507
aF4.2467423511375646
aF-0.15665110483678857
aF-3.6806479639273175
aF7.4653391234767597
aF-0.44180547471219223
aF1.0206708056566791
aaa(lp142
(lp143
F0.98779182459461845
aF0.40642590245583676
aF1.6871354252182353
aF-4.573426091862288
aF-0.72174534962730941
aF-4.6814568351403363
aF0.095393883561494558
aF-1.419037779566656
aF3.9107457680076325
aF-1.4372872272729058
aF6.1256260293299158
aF0.78657500926565238
aF2.4197694868220778
aF2.519184184571972
aF0.06527951167145557
aF5.1095238950180191
aF2.1701218834837928
aF-4.7713031414204661
aF3.0169106754881772
aaatbag2
(g3
(I0
tS'b'
tRp144
(I1
(I2
tg6
I00
(lp145
(lp146
(lp147
F8.9626457570184019
aF8.9125292983465663
aF0.80806663743492635
aF0.39149660142403714
aF-2.7104857004571907
aF3.1297678142708469
aF-5.1189819512206176
aF-0.53419820594068912
aF4.8748470153055523
aF2.7305298367809288
aF3.3998172719109863
aF3.564877498733011
aF1.9895879317913978
aF-0.53065312899823702
aF-6.2381045705718794
aF-2.2666825878307764
aF-3.5657001661503651
aF-0.72391498783623576
aF-1.599848476014893
aa(lp148
F-1.4983551583336334
aF-4.1387466600142311
aF-3.7383673324584805
aF-2.4942371879556164
aF3.1261441423648209
aF3.8393233349914238
aF4.1257154622055037
aF0.65907990031746788
aF-3.291326739756657
aF-3.0062962108761719
aF2.0314650571194046
aF-1.4006339873250861
aF-3.9290768590703831
aF-3.2338645964807435
aF0.49943748084972395
aF-0.45566698656860505
aF2.914225221217666
aF4.6525496307499958
aF-1.7533084363503983
aa(lp149
F4.5825218539188839
aF0.37796392016263236
aF-6.2860878929637067
aF2.4644416611960667
aF-4.0231756116139827
aF-1.6281873965531921
aF-0.56702553432816183
aF-3.6235552282643795
aF-0.88454014709593087
aF-1.8794262047890176
aF5.8008203232988178
aF-3.5363735702384167
aF2.4052739723567318
aF-3.7358129914899836
aF-5.5106492484832801
aF0.92852859022465961
aF1.7779000112933541
aF-1.2739112880695647
aF1.0352651175501086
aa(lp150
F-0.91510867494314496
aF-1.7971481158836131
aF-1.8253164494658503
aF4.9266775898984898
aF-2.085796576965897
aF-2.4856114499051754
aF-1.9496787563125628
aF0.17823619322095521
aF0.31487150591405549
aF-5.4022299405060945
aF0.86581717033385541
aF-1.3189090863100816
aF-3.4653769092018734
aF-6.2365647144732028
aF-1.7805739644164094
aF6.9753888490365279
aF-2.2825292120509459
aF-0.076594842888647541
aF3.7396154170064588
aa(lp151
F0.81877123425295262
aF0.026730371082818227
aF2.5105806754359508
aF0.08630996324453255
aF7.5964160849468412
aF5.449381355081198
aF0.63371529095753598
aF5.0414431467913197
aF1.0964676032579384
aF2.6472660881535104
aF4.1968260966923072
aF-0.56288924052885425
aF0.20291221314532304
aF3.1032842983496911
aF0.69697953570424764
aF1.8628514225797348
aF-1.8044384601665817
aF6.4392309993835166
aF0.39563852541896516
aa(lp152
F0.48398362011876767
aF6.2629965837396906
aF2.2592834314361676
aF0.24908925623438249
aF-0.86158427234378787
aF-7.5113103062247317
aF0.65436779666284006
aF-3.4923429508690171
aF1.8544650748068159
aF0.49097614859544525
aF3.3414792490984082
aF7.0992776007230356
aF-3.9156706091182034
aF4.256032751158628
aF-0.29852490672435095
aF3.445431478830653
aF4.3975547691047252
aF-6.2519292130501638
aF-2.5314371448453992
aa(lp153
F0.64683335662280572
aF3.3426300730088103
aF-2.7592727194416615
aF-2.7936801455629054
aF-0.29319242519439148
aF-6.5207890109273565
aF-5.8368690950784146
aF-5.2743238550065303
aF0.060196633640677344
aF0.43401581267464451
aF-4.024404412623797
aF0.57512983350740265
aF-0.794188362844364
aF4.9963165264562504
aF6.9055328166028156
aF-2.6236529538025488
aF-1.3520663926657857
aF-0.88894541102863223
aF6.8647096897646245
aa(lp154
F0.86440163975006734
aF5.0334037308598711
aF2.0799156715572495
aF-2.1005257669222424
aF1.1645146825647354
aF2.0581356367942463
aF-0.32810190233062897
aF-0.21274186689643831
aF-0.81987349460647307
aF-1.0014416871184162
aF-0.54788856131573316
aF-0.99512419417603359
aF-1.9674018150535462
aF-2.0593948936523141
aF-2.8475396275160221
aF-0.62632508828603173
aF5.4740991581480509
aF0.18342320767962605
aF-5.2287441825778611
aa(lp155
F-1.2871379750725529
aF0.11323597538254654
aF1.3842048791289887
aF-0.25784496172891175
aF-8.1104109083331597
aF1.8498370885092768
aF-2.6731256186576138
aF-0.32744900191715698
aF-0.11614082233580297
aF4.2160663490955761
aF0.77548566304839261
aF5.7214486692990434
aF-1.0782480707642246
aF3.5160581083759852
aF0.20711700748800027
aF-0.17582578143509164
aF2.3000473554328771
aF-5.1977079872522403
aF-0.45018094347476911
aa(lp156
F-2.180341459390803
aF3.2957732075512376
aF0.59138714442681772
aF-0.82635909464303337
aF-0.11787187643700683
aF-6.0490941669442586
aF2.3300275140301498
aF4.739959430275448
aF-0.86037910460420719
aF-2.7658099992479128
aF2.0710532431771211
aF5.4635767098475334
aF2.9305788601516984
aF0.45122177556144194
aF-0.1729331790935297
aF-0.73953513013594618
aF-2.4333341378248146
aF-2.1036650620667077
aF0.81173966444489776
aa(lp157
F-3.6204253700080993
aF-0.14322181831587757
aF-0.010664931636644281
aF-0.16110844282212045
aF1.1160018464720907
aF2.416959611618664
aF2.8542786231129691
aF2.5377255744935128
aF2.5840820351610301
aF-1.718803446511294
aF-0.20874263833638637
aF-3.5491689424949482
aF-1.1561315527768077
aF-1.5715508516393657
aF-4.2047088411943001
aF2.1486880429192814
aF-1.5450889834330725
aF1.8537258912904626
aF1.5614272050378293
aa(lp158
F0.76969135334099015
aF3.2851295671726155
aF-4.0423862206859784
aF-0.051830561867497349
aF-2.9947280640685525
aF1.2715840710159116
aF6.5513871606590461
aF-0.010961776013328206
aF-3.341147602806676
aF-0.65906157622292705
aF-2.3988728626953804
aF-0.38623578342362985
aF-2.1843451653739034
aF-1.4803145101755097
aF3.8360571103588534
aF7.8534504300651209
aF3.9274580519152629
aF2.9018475929747996
aF-5.9490054087824822
aa(lp159
F1.2773944434810924
aF5.1461408890886879
aF0.021039957241894169
aF-2.1582915973534735
aF4.2927104657159978
aF0.63653171052270097
aF-3.4066607750546951
aF-4.0696997052931687
aF-1.4832435309470176
aF-1.1466511677891804
aF-3.6950975035691944
aF-3.7385238036721482
aF-3.0720154187243462
aF-0.47977245119196965
aF-8.1295376476558996
aF2.2032464654569881
aF1.0739028908485428
aF-2.8184454592332404
aF3.0377775052877674
aa(lp160
F1.0618464709544138
aF1.9850307170317083
aF-1.119481858153293
aF1.4872633401067763
aF-2.6587090775414373
aF0.79285884938348228
aF1.0313705221263727
aF1.7376631841676597
aF0.66829763880938309
aF-4.4910573989732994
aF-7.6867571581658911
aF-3.8829688209023541
aF-1.5972647866050791
aF4.8769472259420974
aF-5.3292842756471632
aF2.862451976690501
aF6.508646682512027
aF-1.1186437031498258
aF-3.0270951963732293
aa(lp161
F9.0596571998819471
aF-1.8932097262283434
aF-1.3980969504308318
aF-4.6098479432828556
aF-4.392652398080866
aF8.8158446767203795
aF-1.7899108652388742
aF0.77051742153648317
aF8.8011673451511836
aF0.89334911239952264
aF4.0562453523248649
aF-0.54069136077553437
aF-0.63062672603532666
aF-0.18867674550441479
aF2.180596278097449
aF-1.9769478728427847
aF0.72347548287197672
aF-2.9708621847905214
aF6.7150417418798094
aa(lp162
F-6.6123400728994755
aF2.0346708548720578
aF-1.7658880595558912
aF4.6021290911419728
aF4.0397687260961126
aF4.6150404600836925
aF2.3305799274324279
aF2.4474482888680047
aF-3.6645097128345325
aF0.43871665700781154
aF-6.0014569041417865
aF-5.0641126882296446
aF-0.55984153460751807
aF-2.0510963742409385
aF2.398969676607742
aF-1.0095378709749161
aF3.7537424945267364
aF1.9098181969309751
aF-3.2494165838682365
aa(lp163
F1.7796207373234203
aF1.918557689858164
aF-1.6588218252180371
aF1.9717568511150418
aF-3.4337488933502316
aF-3.447237418702823
aF1.7996974241372738
aF-0.53695071088944724
aF1.3326024901336719
aF-5.3320096432323405
aF-1.942458524558631
aF5.06682990484114
aF3.177573626210763
aF3.166923896244247
aF-0.51754693320013434
aF-3.3818038351839452
aF2.0507973013560501
aF-3.0607663714683553
aF-6.2418541957210047
aa(lp164
F1.8173919130807477
aF0.038768072949195251
aF-2.1583600406723495
aF-1.7789559557702783
aF-2.7373913899993729
aF1.7835014848067678
aF4.5096021615032349
aF-5.3239153005241828
aF1.7192814698201846
aF7.4510227367039024
aF0.66680179618486557
aF3.7652608062850663
aF6.1468563024180867
aF-0.88678487935492112
aF-0.44603128321404523
aF0.2145382385541032
aF-0.068549086093779021
aF-5.359309497095313
aF5.9590500667413693
aaa(lp165
(lp166
F-1.4251078309556753
aF-1.024716958393475
aF3.3480711996508674
aF-4.1807889569862589
aF-1.8129212858531227
aF4.2387200208239753
aF2.282411285424208
aF-3.6823238761500829
aF-1.3016936574219151
aF1.0975422929471579
aF1.968400580341449
aF-0.3160851177941858
aF-4.8905550793172381
aF7.1469769278408792
aF-5.1159448819264624
aF2.5867162484152364
aF-0.42110111190349064
aF-3.9970998366026387
aF-1.4458773017911244
aaatbag2
(g3
(I0
tS'b'
tRp167
(I1
(I2
tg6
I00
(lp168
(lp169
(lp170
F-6.3232505451984178
aF2.1673157269036225
aF-1.1202791445785094
aF0.44663525257497894
aF-4.8519360374098808
aF2.6043137001876486
aF-4.70079887977161
aF0.042691727512784647
aF0.41847492590793856
aF-0.41402911729049607
aF-0.59019835111509988
aF-2.4036443607553424
aF-2.7621036935801362
aF-0.43766142035105821
aF-1.767112447111669
aF-6.4501655566592397
aF3.7039059282688385
aF0.040504533233410689
aF-7.2414347542662636
aa(lp171
F8.3444810070480546
aF1.6563462475050108
aF-1.1703355002414015
aF-0.01794272759969967
aF0.84781841929528756
aF-2.2648672474287834
aF0.090155134130755682
aF2.1125376987116455
aF6.1966994340385266
aF-1.2018447386433633
aF-0.14203964722843859
aF1.2343303312484204
aF-3.1517335484415177
aF1.8014812808139522
aF0.01076130320708113
aF0.76398058992341678
aF-4.8953941912034802
aF0.52495095530339642
aF-0.92219380175245713
aa(lp172
F0.96574728819095967
aF1.835126069761349
aF-4.288119520746192
aF-1.0951492788150927
aF-2.5755929424711193
aF1.3256291482478799
aF-0.29115786327600024
aF3.6483235092745612
aF0.4227541086288914
aF-1.8129369801113424
aF-2.907591866087285
aF3.3066828922930744
aF1.1918133623591767
aF1.3834110837284233
aF0.95865520882351418
aF-6.8753625685892024
aF-1.0424676690993708
aF-2.7707218334243975
aF-4.6259450299352185
aa(lp173
F1.1888091234329254
aF3.2017516646703048
aF1.8522547913528986
aF1.4406639589486816
aF-5.0412781904843404
aF-0.061989486361742396
aF-5.2810465839849972
aF0.64604188873980395
aF-3.6918350732360117
aF1.1416999627268714
aF0.5801183406919852
aF2.179761412898324
aF-9.6577437305640323
aF-0.41874062640806242
aF-3.6649504818862821
aF0.79178189172009583
aF-2.4980761672441809
aF-0.87892408094759811
aF1.2209858644151916
aa(lp174
F-6.0735307328141186
aF0.53461185533218702
aF-2.7486058966370162
aF-0.90907677521772112
aF1.0280206743567866
aF2.0829977060994485
aF-0.45629837627037984
aF1.9944227977246058
aF4.4647824903807383
aF-1.7864259496115824
aF-2.2846967163095964
aF-2.0608826007968348
aF-4.1366856287492473
aF-2.7905314396405716
aF-0.047038131900729335
aF0.94804790747441947
aF0.84701517634726808
aF-1.6446047522023139
aF1.9361329295239182
aa(lp175
F1.7096262532478361
aF-5.1082218682842235
aF3.7613024344983224
aF-0.86797984530369354
aF1.5499805299473723
aF-0.7956071751773558
aF0.2700780261343505
aF-1.7256155856331281
aF-2.5107271196567691
aF-2.6306797020992874
aF-4.6191399848282026
aF-3.7515292564807297
aF-2.2841291408120532
aF5.0801499280445661
aF3.3811397668716467
aF1.3547598416336419
aF-0.62713049070133298
aF5.0221913787553589
aF0.68224339722541838
aa(lp176
F-0.91059431054086082
aF4.8103773936809819
aF-3.2959152989114457
aF1.3222335738794826
aF-2.7489988979872795
aF6.2935427165511193
aF-4.1922669639633066
aF-5.7355837864851873
aF-0.88663342826546709
aF1.2764265852874308
aF-0.53712975994512857
aF3.8266660804102814
aF-2.1851295823810366
aF1.9563160618303232
aF1.41470564795464
aF1.424682162130285
aF6.2684442868159946
aF0.47648919044501503
aF-0.44100898776746922
aa(lp177
F-1.8092313649012781
aF-0.38268518484292846
aF0.6758421750051502
aF4.4087666925946092
aF1.648030668128851
aF-4.7986594009679839
aF-4.3150468975104541
aF-4.3894861873463284
aF0.25162340673776795
aF1.807692663513397
aF1.1254651722384781
aF-3.4753701766701819
aF1.1957861776565495
aF-1.2630467755366357
aF0.41108277299301504
aF-1.7322303929137364
aF3.2010017307281311
aF-1.0387144646619599
aF4.109273651359497
aa(lp178
F2.8985225431825237
aF-5.0343272890863497
aF1.1932922505777179
aF-0.30992583988571648
aF-0.37731678837549043
aF-2.4903497970968722
aF0.36001541262899062
aF-5.7345087773717829
aF-3.8426329842086071
aF2.0021651127741853
aF2.5562030648784608
aF7.9374408030082044
aF6.0186230501691673
aF-1.0410632390434849
aF-3.7523052194850877
aF-0.62601376314727042
aF2.6612451702550759
aF1.7296631282485098
aF-1.165081972880359
aa(lp179
F1.0715292302290909
aF-0.19159624668535602
aF0.021854625425847346
aF-0.59054855642257387
aF-1.701964514567218
aF-3.6125059397590107
aF-3.3769163323622133
aF1.2512808371232369
aF-4.3309372210590507
aF6.3916893931196972
aF-1.6636369920747449
aF4.0926093363934424
aF4.5416500021375512
aF-0.73647449686760003
aF-3.5774805839824944
aF1.3723566517819288
aF0.6886025689916575
aF2.0978593765687519
aF-1.9225458059034555
aa(lp180
F-4.8745965656669812
aF3.3308440048648058
aF1.2542283123079601
aF5.1294511220229602
aF-8.0119149064526649
aF2.4353124214894759
aF3.8701655369943997
aF0.20990427601660855
aF4.176021525456755
aF3.4408261391208903
aF-3.6182030105274219
aF2.3882327066085698
aF4.2229317563972293
aF-1.1061143566078779
aF-1.7577658503612681
aF0.41680320233415663
aF-2.7560002192842501
aF-0.26783439666374353
aF-1.2427884431186871
aa(lp181
F-1.5569581403131783
aF1.134015986014316
aF-2.1506971115944813
aF-2.520639687579993
aF0.84793775468988342
aF2.8604679542301614
aF-0.28713349490575618
aF-2.6206339948485233
aF-3.9574342017033812
aF-3.1942599829959928
aF3.4719420410329365
aF2.6091951620348222
aF-3.7447344276633241
aF0.97989925333071359
aF-0.87826967601073047
aF-0.20668286124014548
aF-0.6671052676109358
aF3.6909641712136438
aF-5.6208915105730268
aa(lp182
F-2.7453029702216929
aF-2.221509815828135
aF-4.6528538136359625
aF-3.3111140917318567
aF6.5022581790566161
aF3.7794940163547572
aF1.1865412063066541
aF-0.64111768387945911
aF-3.4299893113319859
aF-0.11143135626203279
aF-0.16565363021025301
aF3.5802263131742835
aF-5.0822761735033373
aF1.225164330667333
aF-0.6106565648575385
aF-1.7509372593688715
aF-6.4777306385872286
aF5.9705161976522394
aF-2.2000830453374092
aa(lp183
F-2.4215335791683854
aF-3.7073232791781381
aF0.79487919077661551
aF2.8870210744989082
aF-0.041554285624664317
aF-2.8675140477051304
aF3.1679268252761323
aF1.7572624582012637
aF1.1204055870081162
aF-1.961883622575934
aF-1.0378484225854441
aF1.337194288355299
aF-3.2835113056795557
aF-3.3133515452034779
aF7.9765140862434647
aF-2.7043453947076364
aF-0.46827562979128745
aF-1.4182553151123911
aF6.0625625024780536
aa(lp184
F-0.97202826351860694
aF1.4777877136197344
aF4.9040483397415722
aF-3.0950777329159838
aF1.3918219557063323
aF-2.3353484938556242
aF-4.1643645974114198
aF-2.0314837147571549
aF-3.4017736475177571
aF2.6945114652667543
aF-1.4199641163340713
aF-5.7513473111342996
aF-1.8536297407591982
aF2.115261350966215
aF0.27780990760460922
aF1.2561086727417881
aF5.9515939316934574
aF-1.1377581182653977
aF-1.3259459206636812
aa(lp185
F-3.4338492150476099
aF-2.29002140536653
aF6.3882586926816671
aF-1.2472345817559489
aF-0.99042917728357538
aF-2.9356672314063461
aF5.8982317814302361
aF-3.0966387534130173
aF6.8871364055337301
aF-4.8358351336528758
aF-4.070666816298333
aF-3.0812534143613459
aF0.29975520924488219
aF5.2243485033328181
aF-0.94888932414864324
aF0.24329183264369414
aF0.85228180407023268
aF-2.4577714801791655
aF3.2741392950878967
aa(lp186
F-0.18099439889432448
aF0.8190976336450233
aF3.5374576587478934
aF1.1528783112947858
aF1.9775366725729135
aF-1.343972858203295
aF0.30982448284887681
aF-1.9974589632010633
aF0.71081171081290129
aF0.23219622638920007
aF-2.33189119390783
aF0.11907771366120318
aF-3.9814579007899278
aF-0.93401265008988732
aF-2.279990222436973
aF-4.6793852829077327
aF4.0627744344313728
aF-5.3439352301694312
aF-0.65332212882326168
aa(lp187
F0.83759050570007199
aF2.5918334722616567
aF-3.2592753263273799
aF1.5689863693088337
aF0.032709786969328414
aF1.3293373761732892
aF-4.939058564012849
aF2.3228297475989015
aF3.4338396687538784
aF-2.5409576479048135
aF-1.5718040939041784
aF-1.7060120454623808
aF-1.6988598784149833
aF1.952747593041628
aF0.051913556658824411
aF-6.6977718942308355
aF-0.19546482988437652
aF0.7496013290187673
aF3.3457360752527796
aaa(lp188
(lp189
F-1.4702464472474064
aF-4.4593357748496558
aF-2.820108000074089
aF-2.833504975895011
aF2.7586972073587654
aF-2.1926279456268176
aF-5.145676049045929
aF-1.9847156121660952
aF-1.2934183925938989
aF4.3035170821550173
aF2.0787136655761773
aF-0.84111629103830476
aF0.78341389594844402
aF-0.58070056877813547
aF-1.6357348420565641
aF-0.48446491270996167
aF0.38884771892672026
aF7.2046300743888283
aF-2.4170452176534352
aaatbag2
(g3
(I0
tS'b'
tRp190
(I1
(I2
tg6
I00
(lp191
(lp192
(lp193
F4.796320955307559
aF-3.3230918767030415
aF0.32937287570156581
aF6.0048234921689128
aF-0.46504097661680444
aF5.2789995949419399
aF0.737760822760815
aF-3.4866515300991567
aF2.4554021846612231
aF-1.3482700798141734
aF-3.5002062956309352
aF5.7313001168885975
aF-2.8748923359050833
aF-5.9953906087862352
aF0.38185525677494558
aF4.4810172541515554
aF8.9607762983364001
aF-0.45037677612825278
aF1.7798242943611762
aa(lp194
F-1.5744253081573414
aF2.9827110697679751
aF-4.584956555161841
aF5.4262182071358431
aF0.64595199997004848
aF-0.28528437686570307
aF1.9212208808946558
aF-1.7262066392505213
aF2.2173872313599756
aF-5.3007369880595121
aF1.6674351750176455
aF3.6084014318231601
aF1.0925746429765362
aF2.0435268759873821
aF4.0470836772183318
aF2.8932634764938063
aF-6.8744973591371634
aF-1.7295263185244929
aF7.9515848105478986
aa(lp195
F0.37721094671805944
aF-7.3102818035943198
aF2.8333718861549233
aF-0.86345930316664377
aF-0.096668780142583066
aF-4.2527817030840227
aF5.3296445345749373
aF2.3735651253328713
aF0.078978652494588353
aF0.99838942689130772
aF0.83412734754914697
aF2.0737172339388747
aF1.393068568056361
aF1.8733620660451757
aF0.63957171712990479
aF-2.9834527311849866
aF-4.8801260908625244
aF-4.7588716631537089
aF0.23782777545478226
aa(lp196
F0.77970619990064405
aF-1.0841802702476278
aF2.4461151000185586
aF0.90397044166498941
aF-1.191669395722613
aF-4.2640883863112373
aF-1.3310155139654392
aF2.0820564619779591
aF5.0570339389820615
aF0.49113178048635309
aF4.5327219039058644
aF-2.0081264707864173
aF-0.60617131063968221
aF-2.6354795265396342
aF-4.7156470454608392
aF-4.6361954799086176
aF-2.9165575074745762
aF1.7370467222175456
aF1.7344033366642344
aa(lp197
F3.7286206637572903
aF3.3078973241080916
aF0.55777133486091768
aF4.2825359732838528
aF3.8480721520203898
aF-2.8019204747630182
aF2.158272874320732
aF1.655549609700578
aF-0.65176427677797533
aF-1.6417701763981885
aF3.3861594732406024
aF2.5431781650575567
aF-1.1781847106307977
aF-2.1435407658540693
aF-2.2993217852861272
aF-3.2059854423517953
aF3.8146743268657843
aF-1.9990238663040343
aF-1.1941783565659512
aa(lp198
F3.7486927465207232
aF2.0319262480411058
aF-7.4366922267844435
aF-4.0893546286657214
aF0.28084897204113668
aF3.4523907242583154
aF-1.6440065447996883
aF-6.6087229255227742
aF-4.9738121516546228
aF-5.0494602468823118
aF-1.441162279711687
aF-0.41765373184808441
aF-0.067997117819097952
aF2.0258737924643628
aF-3.186183163076258
aF-2.9066231362823589
aF4.0310023926600573
aF2.4888701502752695
aF-4.0062596333042286
aa(lp199
F-3.6254840007743052
aF1.1508043363050966
aF-4.2278041965646125
aF0.67185222939636324
aF-4.4086446403739785
aF1.6574429032780271
aF-2.0166025619186314
aF-1.136556971442966
aF1.0317316019319682
aF-0.38692506707972973
aF-5.9242822201112428
aF2.8355628740014502
aF-1.246143862556212
aF-2.6024502174623825
aF5.3534941028685674
aF-3.0454003966951415
aF-0.084349811403166913
aF0.97686298798729043
aF-0.58369334645455351
aa(lp200
F-4.6506326032761809
aF-0.4391114212484496
aF-0.19957682782818226
aF6.0517305171175506
aF-4.4476193423489585
aF-3.5157578816265689
aF2.5162854336638012
aF-0.14974076390525262
aF-4.8913759299239414
aF-0.53665023531905021
aF-0.50924000446810558
aF1.1404895525770151
aF0.58264790383804699
aF2.8504896962436792
aF6.3088165295854548
aF2.1377839739739759
aF0.71321352618337941
aF7.8235115960364547
aF6.8265595562742636
aa(lp201
F-1.670026902481349
aF-0.23292395588412695
aF-3.9753192666021819
aF-1.0881896729453715
aF-0.65933890645371107
aF-5.0268045109351647
aF0.9465305791143318
aF-2.5237007241502192
aF-0.42747310983682346
aF-7.8280059124657138
aF-1.2820685614804703
aF-1.3101169474834504
aF2.4174835532274881
aF-1.9393842784219062
aF1.5329897494038052
aF2.6101005526180572
aF4.4683018580115901
aF-5.7748025053564334
aF-1.1245737040456161
aa(lp202
F-2.2244905332409806
aF0.91217406635640741
aF-1.5241548186846099
aF-4.7954685496810168
aF1.3511212160520931
aF0.63768449636018731
aF3.3589160542470213
aF5.4333714875932655
aF-4.965026975045987
aF1.576560084951891
aF0.095397350998400632
aF1.2156899471134792
aF-6.0658020570697104
aF6.2980147021840001
aF0.67153646333926842
aF0.15436881471016342
aF0.97187471535609249
aF-1.7103471749011296
aF-6.4693205594369623
aa(lp203
F0.69324763805089507
aF4.9932121579602811
aF-1.1508559540836409
aF-4.5740685211840395
aF1.2277482978491656
aF-1.0824746660080056
aF1.7696849936621568
aF1.7109223547223378
aF-4.9432988624023357
aF-0.79563089529751563
aF3.8405743152654885
aF-0.78918571957924044
aF0.82930423587419044
aF0.58535036526546314
aF1.0491044538876884
aF2.9398067647447421
aF1.907686975055396
aF2.7257875149549746
aF2.1791076683386028
aa(lp204
F-1.2630251084571054
aF4.5225259891046923
aF-0.37397647344240192
aF4.1263824723337361
aF-5.2015700806427816
aF-1.2992497221672026
aF-1.289347940239006
aF-0.49190072019954145
aF2.5745855297766354
aF0.59762524450447485
aF-4.2964715747435065
aF4.8995842101233675
aF-5.0574557235768687
aF2.5306167920221165
aF0.10376389591746799
aF0.46972991497182004
aF-5.2377211799575978
aF0.71218999642411696
aF-0.0074645526221939068
aa(lp205
F1.7254985413462645
aF5.2266527653995016
aF-6.2254180194865087
aF0.58354581978037356
aF-1.3534048187179124
aF6.8453474382219239
aF1.9925179716526367
aF0.59155614206950724
aF-8.5704134208701461
aF1.8128129226147127
aF2.9289574093777544
aF7.5126647858512685
aF3.5856959845404015
aF0.66817601649775149
aF-5.6119069718286596
aF6.8831789399739272
aF2.4396207245884662
aF6.2999700605555651
aF-2.5423535378227613
aa(lp206
F-1.6208067895405578
aF2.2222120399829448
aF-2.6517488610147413
aF-0.2605387320961764
aF-4.6439000540206772
aF-2.8621161402346624
aF-0.12520898084265264
aF3.1332301327105321
aF-0.49080264363900072
aF-2.3301981574640616
aF-3.7532730751097709
aF-1.8836840834664721
aF1.195098840089587
aF-4.6956976975558007
aF-3.0713274541350271
aF-5.6227363988514991
aF-0.69133850385802154
aF-3.9692536459412482
aF-0.2804632379957237
aa(lp207
F2.5783540594907768
aF1.9194345874373244
aF0.56749539082051648
aF3.1813402662876165
aF0.15144519990167798
aF1.5162953083853932
aF-1.5455689716152685
aF-8.2618083975591201
aF3.6104377908331222
aF0.56770940898999811
aF-1.2924068290693225
aF0.33911597205290966
aF-0.35638766348709316
aF3.6979288021922878
aF-4.2266771414989117
aF-4.6495776409340213
aF1.463942836489442
aF-4.2065206859919755
aF2.627413852920125
aa(lp208
F1.4149256046376504
aF-5.3831312559933542
aF-3.3801999053416552
aF2.9179842009542081
aF-0.56706345766354416
aF-10.601836954785488
aF-3.5873973724120338
aF6.805036560921037
aF-2.9691849420964891
aF0.18188304345237724
aF0.98597050997365188
aF6.0129148233489733
aF-5.1930711654649508
aF-0.68391790885652293
aF-5.4539422364014207
aF1.655067708125056
aF-5.6347888349193083
aF-0.18052939259770057
aF-1.2274381496603579
aa(lp209
F0.066836145590329271
aF-3.8524801378791969
aF1.6073768880345003
aF-2.5103091458502167
aF-0.98551191943022398
aF-1.6619995793201408
aF-3.6828718246243022
aF-6.1926065500170351
aF-7.6459861560786875
aF-1.0814537775143509
aF3.0442537140636454
aF-1.0400522391018858
aF0.65054318669884925
aF-0.64780821426286661
aF5.238891688782326
aF-0.32942681839058696
aF-2.7540559818159545
aF-1.6597691944801864
aF-2.8354670507821309
aa(lp210
F-1.0841522733704667
aF-0.5394195977152948
aF-4.7851723851596413
aF6.9777332772480305
aF-0.56430928078253262
aF6.0079706392721199
aF1.5824532675133525
aF3.2361795666735387
aF-2.5008086635236579
aF6.397320309151409
aF3.3176101448872579
aF2.1589797135030349
aF-5.3529012577101165
aF-6.2915109403705873
aF3.2891121284022606
aF0.40832593424748648
aF-3.4599445317393358
aF5.3121300777493161
aF3.3488650510203306
aaa(lp211
(lp212
F2.4941268734966489
aF8.0119142834533417
aF-2.6068761077189113
aF-2.7114665214713591
aF-0.8005438183692426
aF0.99056826095909112
aF0.95128546127454072
aF-3.373322158492587
aF-5.6691942386611256
aF-3.4073070619031207
aF-3.3617757140456574
aF0.82146543485176871
aF1.9688377459235911
aF3.8283878404954939
aF1.2980223718141011
aF-2.6390868730131545
aF-1.6109507280498219
aF-0.91759898173517185
aF1.9592292989180926
aaatba.